ARM GAS  C:\Users\kmoe\AppData\Local\Temp\ccx92f5Y.s 			page 1


   1              		.cpu cortex-m0
   2              		.fpu softvfp
   3              		.eabi_attribute 20, 1
   4              		.eabi_attribute 21, 1
   5              		.eabi_attribute 23, 3
   6              		.eabi_attribute 24, 1
   7              		.eabi_attribute 25, 1
   8              		.eabi_attribute 26, 1
   9              		.eabi_attribute 30, 6
  10              		.eabi_attribute 34, 0
  11              		.eabi_attribute 18, 4
  12              		.code	16
  13              		.file	"IDAC_1.c"
  14              		.text
  15              	.Ltext0:
  16              		.cfi_sections	.debug_frame
  17              		.global	IDAC_1_initVar
  18              		.bss
  19              		.align	2
  20              		.type	IDAC_1_initVar, %object
  21              		.size	IDAC_1_initVar, 4
  22              	IDAC_1_initVar:
  23 0000 00000000 		.space	4
  24              		.section	.text.IDAC_1_Init,"ax",%progbits
  25              		.align	2
  26              		.global	IDAC_1_Init
  27              		.code	16
  28              		.thumb_func
  29              		.type	IDAC_1_Init, %function
  30              	IDAC_1_Init:
  31              	.LFB0:
  32              		.file 1 ".\\Generated_Source\\PSoC4\\IDAC_1.c"
   1:.\Generated_Source\PSoC4/IDAC_1.c **** /*******************************************************************************
   2:.\Generated_Source\PSoC4/IDAC_1.c **** * File Name: IDAC_1.c
   3:.\Generated_Source\PSoC4/IDAC_1.c **** * Version 1.0
   4:.\Generated_Source\PSoC4/IDAC_1.c **** *
   5:.\Generated_Source\PSoC4/IDAC_1.c **** * Description:
   6:.\Generated_Source\PSoC4/IDAC_1.c **** *  This file provides the source code of APIs for the IDAC_P4 component.
   7:.\Generated_Source\PSoC4/IDAC_1.c **** *
   8:.\Generated_Source\PSoC4/IDAC_1.c **** *******************************************************************************
   9:.\Generated_Source\PSoC4/IDAC_1.c **** * Copyright 2013, Cypress Semiconductor Corporation.  All rights reserved.
  10:.\Generated_Source\PSoC4/IDAC_1.c **** * You may use this file only in accordance with the license, terms, conditions,
  11:.\Generated_Source\PSoC4/IDAC_1.c **** * disclaimers, and limitations in the end user license agreement accompanying
  12:.\Generated_Source\PSoC4/IDAC_1.c **** * the software package with which this file was provided.
  13:.\Generated_Source\PSoC4/IDAC_1.c **** *******************************************************************************/
  14:.\Generated_Source\PSoC4/IDAC_1.c **** 
  15:.\Generated_Source\PSoC4/IDAC_1.c **** #include "IDAC_1.h"
  16:.\Generated_Source\PSoC4/IDAC_1.c **** 
  17:.\Generated_Source\PSoC4/IDAC_1.c **** uint32 IDAC_1_initVar = 0u;
  18:.\Generated_Source\PSoC4/IDAC_1.c **** 
  19:.\Generated_Source\PSoC4/IDAC_1.c **** 
  20:.\Generated_Source\PSoC4/IDAC_1.c **** /*******************************************************************************
  21:.\Generated_Source\PSoC4/IDAC_1.c **** * Function Name: IDAC_1_Init
  22:.\Generated_Source\PSoC4/IDAC_1.c **** ********************************************************************************
  23:.\Generated_Source\PSoC4/IDAC_1.c **** *
  24:.\Generated_Source\PSoC4/IDAC_1.c **** * Summary:
  25:.\Generated_Source\PSoC4/IDAC_1.c **** *  Initializes IDAC registers with initial values provided from customizer.
ARM GAS  C:\Users\kmoe\AppData\Local\Temp\ccx92f5Y.s 			page 2


  26:.\Generated_Source\PSoC4/IDAC_1.c **** *
  27:.\Generated_Source\PSoC4/IDAC_1.c **** * Parameters:
  28:.\Generated_Source\PSoC4/IDAC_1.c **** *  None
  29:.\Generated_Source\PSoC4/IDAC_1.c **** *
  30:.\Generated_Source\PSoC4/IDAC_1.c **** * Return:
  31:.\Generated_Source\PSoC4/IDAC_1.c **** *  None
  32:.\Generated_Source\PSoC4/IDAC_1.c **** *
  33:.\Generated_Source\PSoC4/IDAC_1.c **** * Global variables:
  34:.\Generated_Source\PSoC4/IDAC_1.c **** *  None
  35:.\Generated_Source\PSoC4/IDAC_1.c **** *
  36:.\Generated_Source\PSoC4/IDAC_1.c **** *******************************************************************************/
  37:.\Generated_Source\PSoC4/IDAC_1.c **** void IDAC_1_Init(void)
  38:.\Generated_Source\PSoC4/IDAC_1.c **** {
  33              		.loc 1 38 0
  34              		.cfi_startproc
  35 0000 90B5     		push	{r4, r7, lr}
  36              		.cfi_def_cfa_offset 12
  37              		.cfi_offset 4, -12
  38              		.cfi_offset 7, -8
  39              		.cfi_offset 14, -4
  40 0002 83B0     		sub	sp, sp, #12
  41              		.cfi_def_cfa_offset 24
  42 0004 00AF     		add	r7, sp, #0
  43              		.cfi_def_cfa_register 7
  39:.\Generated_Source\PSoC4/IDAC_1.c ****     uint8 enableInterrupts;
  40:.\Generated_Source\PSoC4/IDAC_1.c **** 
  41:.\Generated_Source\PSoC4/IDAC_1.c ****     /* Set initial configuration */
  42:.\Generated_Source\PSoC4/IDAC_1.c ****     enableInterrupts = CyEnterCriticalSection();
  44              		.loc 1 42 0
  45 0006 FC1D     		add	r4, r7, #7
  46 0008 FFF7FEFF 		bl	CyEnterCriticalSection
  47 000c 031C     		mov	r3, r0
  48 000e 2370     		strb	r3, [r4]
  43:.\Generated_Source\PSoC4/IDAC_1.c **** 
  44:.\Generated_Source\PSoC4/IDAC_1.c ****     /* clear previous values */
  45:.\Generated_Source\PSoC4/IDAC_1.c ****     IDAC_1_IDAC_CONTROL_REG &= ((uint32)~((uint32)IDAC_1_IDAC_VALUE_MASK <<
  49              		.loc 1 45 0
  50 0010 0E4B     		ldr	r3, .L2
  51 0012 0E4A     		ldr	r2, .L2
  52 0014 1268     		ldr	r2, [r2]
  53 0016 1A60     		str	r2, [r3]
  46:.\Generated_Source\PSoC4/IDAC_1.c ****         IDAC_1_IDAC_VALUE_POSITION)) | ((uint32)~((uint32)IDAC_1_IDAC_MODE_MASK <<
  47:.\Generated_Source\PSoC4/IDAC_1.c ****         IDAC_1_IDAC_MODE_POSITION))  | ((uint32)~((uint32)IDAC_1_IDAC_RANGE_MASK  <<
  48:.\Generated_Source\PSoC4/IDAC_1.c ****         IDAC_1_IDAC_RANGE_POSITION));
  49:.\Generated_Source\PSoC4/IDAC_1.c **** 
  50:.\Generated_Source\PSoC4/IDAC_1.c ****     IDAC_1_IDAC_POLARITY_CONTROL_REG &= (~(uint32)((uint32)IDAC_1_IDAC_POLARITY_MASK <<
  54              		.loc 1 50 0
  55 0018 0D4B     		ldr	r3, .L2+4
  56 001a 0D4A     		ldr	r2, .L2+4
  57 001c 1168     		ldr	r1, [r2]
  58 001e 0D4A     		ldr	r2, .L2+8
  59 0020 0A40     		and	r2, r1
  60 0022 1A60     		str	r2, [r3]
  51:.\Generated_Source\PSoC4/IDAC_1.c ****         IDAC_1_IDAC_POLARITY_POSITION));
  52:.\Generated_Source\PSoC4/IDAC_1.c **** 
  53:.\Generated_Source\PSoC4/IDAC_1.c ****     /* set new configuration */
  54:.\Generated_Source\PSoC4/IDAC_1.c ****     IDAC_1_IDAC_CONTROL_REG |= (((uint32)IDAC_1_IDAC_INIT_VALUE <<
ARM GAS  C:\Users\kmoe\AppData\Local\Temp\ccx92f5Y.s 			page 3


  61              		.loc 1 54 0
  62 0024 094B     		ldr	r3, .L2
  63 0026 094A     		ldr	r2, .L2
  64 0028 1268     		ldr	r2, [r2]
  65 002a 8F21     		mov	r1, #143
  66 002c C900     		lsl	r1, r1, #3
  67 002e 0A43     		orr	r2, r1
  68 0030 1A60     		str	r2, [r3]
  55:.\Generated_Source\PSoC4/IDAC_1.c ****         IDAC_1_IDAC_VALUE_POSITION) | ((uint32)IDAC_1_IDAC_RANGE <<
  56:.\Generated_Source\PSoC4/IDAC_1.c ****         IDAC_1_IDAC_RANGE_POSITION));
  57:.\Generated_Source\PSoC4/IDAC_1.c **** 
  58:.\Generated_Source\PSoC4/IDAC_1.c ****     IDAC_1_IDAC_POLARITY_CONTROL_REG |= ((uint32)IDAC_1_IDAC_POLARITY <<
  69              		.loc 1 58 0
  70 0032 074B     		ldr	r3, .L2+4
  71 0034 064A     		ldr	r2, .L2+4
  72 0036 1268     		ldr	r2, [r2]
  73 0038 1A60     		str	r2, [r3]
  59:.\Generated_Source\PSoC4/IDAC_1.c ****                                                            IDAC_1_IDAC_POLARITY_POSITION);
  60:.\Generated_Source\PSoC4/IDAC_1.c **** 
  61:.\Generated_Source\PSoC4/IDAC_1.c ****     CyExitCriticalSection(enableInterrupts);
  74              		.loc 1 61 0
  75 003a FB1D     		add	r3, r7, #7
  76 003c 1B78     		ldrb	r3, [r3]
  77 003e 181C     		mov	r0, r3
  78 0040 FFF7FEFF 		bl	CyExitCriticalSection
  62:.\Generated_Source\PSoC4/IDAC_1.c **** 
  63:.\Generated_Source\PSoC4/IDAC_1.c **** }
  79              		.loc 1 63 0
  80 0044 BD46     		mov	sp, r7
  81 0046 03B0     		add	sp, sp, #12
  82              		@ sp needed
  83 0048 90BD     		pop	{r4, r7, pc}
  84              	.L3:
  85 004a C046     		.align	2
  86              	.L2:
  87 004c 08000840 		.word	1074266120
  88 0050 04000840 		.word	1074266116
  89 0054 FFFFFEFF 		.word	-65537
  90              		.cfi_endproc
  91              	.LFE0:
  92              		.size	IDAC_1_Init, .-IDAC_1_Init
  93              		.section	.text.IDAC_1_Enable,"ax",%progbits
  94              		.align	2
  95              		.global	IDAC_1_Enable
  96              		.code	16
  97              		.thumb_func
  98              		.type	IDAC_1_Enable, %function
  99              	IDAC_1_Enable:
 100              	.LFB1:
  64:.\Generated_Source\PSoC4/IDAC_1.c **** 
  65:.\Generated_Source\PSoC4/IDAC_1.c **** 
  66:.\Generated_Source\PSoC4/IDAC_1.c **** /*******************************************************************************
  67:.\Generated_Source\PSoC4/IDAC_1.c **** * Function Name: IDAC_1_Enable
  68:.\Generated_Source\PSoC4/IDAC_1.c **** ********************************************************************************
  69:.\Generated_Source\PSoC4/IDAC_1.c **** *
  70:.\Generated_Source\PSoC4/IDAC_1.c **** * Summary:
  71:.\Generated_Source\PSoC4/IDAC_1.c **** *  Enables IDAC operations.
ARM GAS  C:\Users\kmoe\AppData\Local\Temp\ccx92f5Y.s 			page 4


  72:.\Generated_Source\PSoC4/IDAC_1.c **** *
  73:.\Generated_Source\PSoC4/IDAC_1.c **** * Parameters:
  74:.\Generated_Source\PSoC4/IDAC_1.c **** *  None
  75:.\Generated_Source\PSoC4/IDAC_1.c **** *
  76:.\Generated_Source\PSoC4/IDAC_1.c **** * Return:
  77:.\Generated_Source\PSoC4/IDAC_1.c **** *  None
  78:.\Generated_Source\PSoC4/IDAC_1.c **** *
  79:.\Generated_Source\PSoC4/IDAC_1.c **** * Global variables:
  80:.\Generated_Source\PSoC4/IDAC_1.c **** *  None
  81:.\Generated_Source\PSoC4/IDAC_1.c **** *
  82:.\Generated_Source\PSoC4/IDAC_1.c **** *******************************************************************************/
  83:.\Generated_Source\PSoC4/IDAC_1.c **** void IDAC_1_Enable(void)
  84:.\Generated_Source\PSoC4/IDAC_1.c **** {
 101              		.loc 1 84 0
 102              		.cfi_startproc
 103 0000 90B5     		push	{r4, r7, lr}
 104              		.cfi_def_cfa_offset 12
 105              		.cfi_offset 4, -12
 106              		.cfi_offset 7, -8
 107              		.cfi_offset 14, -4
 108 0002 83B0     		sub	sp, sp, #12
 109              		.cfi_def_cfa_offset 24
 110 0004 00AF     		add	r7, sp, #0
 111              		.cfi_def_cfa_register 7
  85:.\Generated_Source\PSoC4/IDAC_1.c ****     uint8 enableInterrupts;
  86:.\Generated_Source\PSoC4/IDAC_1.c **** 
  87:.\Generated_Source\PSoC4/IDAC_1.c ****     enableInterrupts = CyEnterCriticalSection();
 112              		.loc 1 87 0
 113 0006 FC1D     		add	r4, r7, #7
 114 0008 FFF7FEFF 		bl	CyEnterCriticalSection
 115 000c 031C     		mov	r3, r0
 116 000e 2370     		strb	r3, [r4]
  88:.\Generated_Source\PSoC4/IDAC_1.c **** 
  89:.\Generated_Source\PSoC4/IDAC_1.c ****     /* Enable the IDAC */
  90:.\Generated_Source\PSoC4/IDAC_1.c ****     IDAC_1_IDAC_CONTROL_REG |= ((uint32)IDAC_1_IDAC_EN_MODE <<
 117              		.loc 1 90 0
 118 0010 0A4B     		ldr	r3, .L5
 119 0012 0A4A     		ldr	r2, .L5
 120 0014 1268     		ldr	r2, [r2]
 121 0016 C021     		mov	r1, #192
 122 0018 8900     		lsl	r1, r1, #2
 123 001a 0A43     		orr	r2, r1
 124 001c 1A60     		str	r2, [r3]
  91:.\Generated_Source\PSoC4/IDAC_1.c ****                                                   IDAC_1_IDAC_MODE_POSITION);
  92:.\Generated_Source\PSoC4/IDAC_1.c ****     IDAC_1_IDAC_POLARITY_CONTROL_REG |= ((uint32)IDAC_1_IDAC_CSD_EN <<
 125              		.loc 1 92 0
 126 001e 084B     		ldr	r3, .L5+4
 127 0020 074A     		ldr	r2, .L5+4
 128 0022 1268     		ldr	r2, [r2]
 129 0024 8021     		mov	r1, #128
 130 0026 0906     		lsl	r1, r1, #24
 131 0028 0A43     		orr	r2, r1
 132 002a 1A60     		str	r2, [r3]
  93:.\Generated_Source\PSoC4/IDAC_1.c ****                                                            IDAC_1_IDAC_CSD_EN_POSITION);
  94:.\Generated_Source\PSoC4/IDAC_1.c ****     CyExitCriticalSection(enableInterrupts);
 133              		.loc 1 94 0
 134 002c FB1D     		add	r3, r7, #7
ARM GAS  C:\Users\kmoe\AppData\Local\Temp\ccx92f5Y.s 			page 5


 135 002e 1B78     		ldrb	r3, [r3]
 136 0030 181C     		mov	r0, r3
 137 0032 FFF7FEFF 		bl	CyExitCriticalSection
  95:.\Generated_Source\PSoC4/IDAC_1.c **** 
  96:.\Generated_Source\PSoC4/IDAC_1.c **** }
 138              		.loc 1 96 0
 139 0036 BD46     		mov	sp, r7
 140 0038 03B0     		add	sp, sp, #12
 141              		@ sp needed
 142 003a 90BD     		pop	{r4, r7, pc}
 143              	.L6:
 144              		.align	2
 145              	.L5:
 146 003c 08000840 		.word	1074266120
 147 0040 04000840 		.word	1074266116
 148              		.cfi_endproc
 149              	.LFE1:
 150              		.size	IDAC_1_Enable, .-IDAC_1_Enable
 151              		.section	.text.IDAC_1_Start,"ax",%progbits
 152              		.align	2
 153              		.global	IDAC_1_Start
 154              		.code	16
 155              		.thumb_func
 156              		.type	IDAC_1_Start, %function
 157              	IDAC_1_Start:
 158              	.LFB2:
  97:.\Generated_Source\PSoC4/IDAC_1.c **** 
  98:.\Generated_Source\PSoC4/IDAC_1.c **** 
  99:.\Generated_Source\PSoC4/IDAC_1.c **** /*******************************************************************************
 100:.\Generated_Source\PSoC4/IDAC_1.c **** * Function Name: IDAC_1_Start
 101:.\Generated_Source\PSoC4/IDAC_1.c **** ********************************************************************************
 102:.\Generated_Source\PSoC4/IDAC_1.c **** *
 103:.\Generated_Source\PSoC4/IDAC_1.c **** * Summary:
 104:.\Generated_Source\PSoC4/IDAC_1.c **** *  Starts the IDAC hardware.
 105:.\Generated_Source\PSoC4/IDAC_1.c **** *
 106:.\Generated_Source\PSoC4/IDAC_1.c **** * Parameters:
 107:.\Generated_Source\PSoC4/IDAC_1.c **** *  None
 108:.\Generated_Source\PSoC4/IDAC_1.c **** *
 109:.\Generated_Source\PSoC4/IDAC_1.c **** * Return:
 110:.\Generated_Source\PSoC4/IDAC_1.c **** *  None
 111:.\Generated_Source\PSoC4/IDAC_1.c **** *
 112:.\Generated_Source\PSoC4/IDAC_1.c **** * Global variables:
 113:.\Generated_Source\PSoC4/IDAC_1.c **** *  IDAC_1_initVar
 114:.\Generated_Source\PSoC4/IDAC_1.c **** *
 115:.\Generated_Source\PSoC4/IDAC_1.c **** *******************************************************************************/
 116:.\Generated_Source\PSoC4/IDAC_1.c **** void IDAC_1_Start(void)
 117:.\Generated_Source\PSoC4/IDAC_1.c **** {
 159              		.loc 1 117 0
 160              		.cfi_startproc
 161 0000 80B5     		push	{r7, lr}
 162              		.cfi_def_cfa_offset 8
 163              		.cfi_offset 7, -8
 164              		.cfi_offset 14, -4
 165 0002 00AF     		add	r7, sp, #0
 166              		.cfi_def_cfa_register 7
 118:.\Generated_Source\PSoC4/IDAC_1.c ****     if(0u == IDAC_1_initVar)
 167              		.loc 1 118 0
ARM GAS  C:\Users\kmoe\AppData\Local\Temp\ccx92f5Y.s 			page 6


 168 0004 064B     		ldr	r3, .L9
 169 0006 1B68     		ldr	r3, [r3]
 170 0008 002B     		cmp	r3, #0
 171 000a 04D1     		bne	.L8
 119:.\Generated_Source\PSoC4/IDAC_1.c ****     {
 120:.\Generated_Source\PSoC4/IDAC_1.c ****         IDAC_1_Init();
 172              		.loc 1 120 0
 173 000c FFF7FEFF 		bl	IDAC_1_Init
 121:.\Generated_Source\PSoC4/IDAC_1.c ****         IDAC_1_initVar = 1u;
 174              		.loc 1 121 0
 175 0010 034B     		ldr	r3, .L9
 176 0012 0122     		mov	r2, #1
 177 0014 1A60     		str	r2, [r3]
 178              	.L8:
 122:.\Generated_Source\PSoC4/IDAC_1.c ****     }
 123:.\Generated_Source\PSoC4/IDAC_1.c **** 
 124:.\Generated_Source\PSoC4/IDAC_1.c ****     IDAC_1_Enable();
 179              		.loc 1 124 0
 180 0016 FFF7FEFF 		bl	IDAC_1_Enable
 125:.\Generated_Source\PSoC4/IDAC_1.c **** 
 126:.\Generated_Source\PSoC4/IDAC_1.c **** }
 181              		.loc 1 126 0
 182 001a BD46     		mov	sp, r7
 183              		@ sp needed
 184 001c 80BD     		pop	{r7, pc}
 185              	.L10:
 186 001e C046     		.align	2
 187              	.L9:
 188 0020 00000000 		.word	IDAC_1_initVar
 189              		.cfi_endproc
 190              	.LFE2:
 191              		.size	IDAC_1_Start, .-IDAC_1_Start
 192              		.section	.text.IDAC_1_Stop,"ax",%progbits
 193              		.align	2
 194              		.global	IDAC_1_Stop
 195              		.code	16
 196              		.thumb_func
 197              		.type	IDAC_1_Stop, %function
 198              	IDAC_1_Stop:
 199              	.LFB3:
 127:.\Generated_Source\PSoC4/IDAC_1.c **** 
 128:.\Generated_Source\PSoC4/IDAC_1.c **** 
 129:.\Generated_Source\PSoC4/IDAC_1.c **** /*******************************************************************************
 130:.\Generated_Source\PSoC4/IDAC_1.c **** * Function Name: IDAC_1_Stop
 131:.\Generated_Source\PSoC4/IDAC_1.c **** ********************************************************************************
 132:.\Generated_Source\PSoC4/IDAC_1.c **** *
 133:.\Generated_Source\PSoC4/IDAC_1.c **** * Summary:
 134:.\Generated_Source\PSoC4/IDAC_1.c **** *  Stops the IDAC hardware.
 135:.\Generated_Source\PSoC4/IDAC_1.c **** *
 136:.\Generated_Source\PSoC4/IDAC_1.c **** * Parameters:
 137:.\Generated_Source\PSoC4/IDAC_1.c **** *  None
 138:.\Generated_Source\PSoC4/IDAC_1.c **** *
 139:.\Generated_Source\PSoC4/IDAC_1.c **** * Return:
 140:.\Generated_Source\PSoC4/IDAC_1.c **** *  None
 141:.\Generated_Source\PSoC4/IDAC_1.c **** *
 142:.\Generated_Source\PSoC4/IDAC_1.c **** * Global variables:
 143:.\Generated_Source\PSoC4/IDAC_1.c **** *  None
ARM GAS  C:\Users\kmoe\AppData\Local\Temp\ccx92f5Y.s 			page 7


 144:.\Generated_Source\PSoC4/IDAC_1.c **** *
 145:.\Generated_Source\PSoC4/IDAC_1.c **** *******************************************************************************/
 146:.\Generated_Source\PSoC4/IDAC_1.c **** void IDAC_1_Stop(void)
 147:.\Generated_Source\PSoC4/IDAC_1.c **** {
 200              		.loc 1 147 0
 201              		.cfi_startproc
 202 0000 90B5     		push	{r4, r7, lr}
 203              		.cfi_def_cfa_offset 12
 204              		.cfi_offset 4, -12
 205              		.cfi_offset 7, -8
 206              		.cfi_offset 14, -4
 207 0002 83B0     		sub	sp, sp, #12
 208              		.cfi_def_cfa_offset 24
 209 0004 00AF     		add	r7, sp, #0
 210              		.cfi_def_cfa_register 7
 148:.\Generated_Source\PSoC4/IDAC_1.c ****     uint8 enableInterrupts;
 149:.\Generated_Source\PSoC4/IDAC_1.c **** 
 150:.\Generated_Source\PSoC4/IDAC_1.c ****     enableInterrupts = CyEnterCriticalSection();
 211              		.loc 1 150 0
 212 0006 FC1D     		add	r4, r7, #7
 213 0008 FFF7FEFF 		bl	CyEnterCriticalSection
 214 000c 031C     		mov	r3, r0
 215 000e 2370     		strb	r3, [r4]
 151:.\Generated_Source\PSoC4/IDAC_1.c **** 
 152:.\Generated_Source\PSoC4/IDAC_1.c ****     /* Disable the IDAC */
 153:.\Generated_Source\PSoC4/IDAC_1.c ****     IDAC_1_IDAC_CONTROL_REG &= ((uint32)~((uint32)IDAC_1_IDAC_MODE_MASK <<
 216              		.loc 1 153 0
 217 0010 064B     		ldr	r3, .L12
 218 0012 064A     		ldr	r2, .L12
 219 0014 1168     		ldr	r1, [r2]
 220 0016 064A     		ldr	r2, .L12+4
 221 0018 0A40     		and	r2, r1
 222 001a 1A60     		str	r2, [r3]
 154:.\Generated_Source\PSoC4/IDAC_1.c ****         IDAC_1_IDAC_MODE_POSITION));
 155:.\Generated_Source\PSoC4/IDAC_1.c ****     CyExitCriticalSection(enableInterrupts);
 223              		.loc 1 155 0
 224 001c FB1D     		add	r3, r7, #7
 225 001e 1B78     		ldrb	r3, [r3]
 226 0020 181C     		mov	r0, r3
 227 0022 FFF7FEFF 		bl	CyExitCriticalSection
 156:.\Generated_Source\PSoC4/IDAC_1.c **** }
 228              		.loc 1 156 0
 229 0026 BD46     		mov	sp, r7
 230 0028 03B0     		add	sp, sp, #12
 231              		@ sp needed
 232 002a 90BD     		pop	{r4, r7, pc}
 233              	.L13:
 234              		.align	2
 235              	.L12:
 236 002c 08000840 		.word	1074266120
 237 0030 FFFCFFFF 		.word	-769
 238              		.cfi_endproc
 239              	.LFE3:
 240              		.size	IDAC_1_Stop, .-IDAC_1_Stop
 241              		.section	.text.IDAC_1_SetValue,"ax",%progbits
 242              		.align	2
 243              		.global	IDAC_1_SetValue
ARM GAS  C:\Users\kmoe\AppData\Local\Temp\ccx92f5Y.s 			page 8


 244              		.code	16
 245              		.thumb_func
 246              		.type	IDAC_1_SetValue, %function
 247              	IDAC_1_SetValue:
 248              	.LFB4:
 157:.\Generated_Source\PSoC4/IDAC_1.c **** 
 158:.\Generated_Source\PSoC4/IDAC_1.c **** 
 159:.\Generated_Source\PSoC4/IDAC_1.c **** /*******************************************************************************
 160:.\Generated_Source\PSoC4/IDAC_1.c **** * Function Name: IDAC_1_SetValue
 161:.\Generated_Source\PSoC4/IDAC_1.c **** ********************************************************************************
 162:.\Generated_Source\PSoC4/IDAC_1.c **** *
 163:.\Generated_Source\PSoC4/IDAC_1.c **** * Summary:
 164:.\Generated_Source\PSoC4/IDAC_1.c **** *  Sets the IDAC value.
 165:.\Generated_Source\PSoC4/IDAC_1.c **** *
 166:.\Generated_Source\PSoC4/IDAC_1.c **** * Parameters:
 167:.\Generated_Source\PSoC4/IDAC_1.c **** *  uint32 value
 168:.\Generated_Source\PSoC4/IDAC_1.c **** *
 169:.\Generated_Source\PSoC4/IDAC_1.c **** * Return:
 170:.\Generated_Source\PSoC4/IDAC_1.c **** *  None
 171:.\Generated_Source\PSoC4/IDAC_1.c **** *
 172:.\Generated_Source\PSoC4/IDAC_1.c **** * Global variables:
 173:.\Generated_Source\PSoC4/IDAC_1.c **** *  None
 174:.\Generated_Source\PSoC4/IDAC_1.c **** *
 175:.\Generated_Source\PSoC4/IDAC_1.c **** *******************************************************************************/
 176:.\Generated_Source\PSoC4/IDAC_1.c **** void IDAC_1_SetValue(uint32 value)
 177:.\Generated_Source\PSoC4/IDAC_1.c **** {
 249              		.loc 1 177 0
 250              		.cfi_startproc
 251 0000 90B5     		push	{r4, r7, lr}
 252              		.cfi_def_cfa_offset 12
 253              		.cfi_offset 4, -12
 254              		.cfi_offset 7, -8
 255              		.cfi_offset 14, -4
 256 0002 85B0     		sub	sp, sp, #20
 257              		.cfi_def_cfa_offset 32
 258 0004 00AF     		add	r7, sp, #0
 259              		.cfi_def_cfa_register 7
 260 0006 7860     		str	r0, [r7, #4]
 178:.\Generated_Source\PSoC4/IDAC_1.c ****     uint8 enableInterrupts;
 179:.\Generated_Source\PSoC4/IDAC_1.c ****     uint32 newRegisterValue;
 180:.\Generated_Source\PSoC4/IDAC_1.c **** 
 181:.\Generated_Source\PSoC4/IDAC_1.c ****     enableInterrupts = CyEnterCriticalSection();
 261              		.loc 1 181 0
 262 0008 3C1C     		mov	r4, r7
 263 000a 0F34     		add	r4, r4, #15
 264 000c FFF7FEFF 		bl	CyEnterCriticalSection
 265 0010 031C     		mov	r3, r0
 266 0012 2370     		strb	r3, [r4]
 182:.\Generated_Source\PSoC4/IDAC_1.c **** 
 183:.\Generated_Source\PSoC4/IDAC_1.c ****     #if(IDAC_1_IDAC_VALUE_POSITION != 0u)
 184:.\Generated_Source\PSoC4/IDAC_1.c ****         newRegisterValue = ((IDAC_1_IDAC_CONTROL_REG & (~(uint32)((uint32)IDAC_1_IDAC_VALUE_MASK <<
 185:.\Generated_Source\PSoC4/IDAC_1.c ****         IDAC_1_IDAC_VALUE_POSITION))) | (value << IDAC_1_IDAC_VALUE_POSITION));
 186:.\Generated_Source\PSoC4/IDAC_1.c ****     #else
 187:.\Generated_Source\PSoC4/IDAC_1.c ****         newRegisterValue = ((IDAC_1_IDAC_CONTROL_REG & (~(uint32)IDAC_1_IDAC_VALUE_MASK)) | value);
 267              		.loc 1 187 0
 268 0014 0A4B     		ldr	r3, .L15
 269 0016 1B68     		ldr	r3, [r3]
ARM GAS  C:\Users\kmoe\AppData\Local\Temp\ccx92f5Y.s 			page 9


 270 0018 FF22     		mov	r2, #255
 271 001a 191C     		mov	r1, r3
 272 001c 9143     		bic	r1, r2
 273 001e 0A1C     		mov	r2, r1
 274 0020 7B68     		ldr	r3, [r7, #4]
 275 0022 1343     		orr	r3, r2
 276 0024 BB60     		str	r3, [r7, #8]
 188:.\Generated_Source\PSoC4/IDAC_1.c ****     #endif /* IDAC_1_IDAC_VALUE_POSITION != 0u */
 189:.\Generated_Source\PSoC4/IDAC_1.c **** 
 190:.\Generated_Source\PSoC4/IDAC_1.c ****     IDAC_1_IDAC_CONTROL_REG = newRegisterValue;
 277              		.loc 1 190 0
 278 0026 064B     		ldr	r3, .L15
 279 0028 BA68     		ldr	r2, [r7, #8]
 280 002a 1A60     		str	r2, [r3]
 191:.\Generated_Source\PSoC4/IDAC_1.c **** 
 192:.\Generated_Source\PSoC4/IDAC_1.c ****     CyExitCriticalSection(enableInterrupts);
 281              		.loc 1 192 0
 282 002c 3B1C     		mov	r3, r7
 283 002e 0F33     		add	r3, r3, #15
 284 0030 1B78     		ldrb	r3, [r3]
 285 0032 181C     		mov	r0, r3
 286 0034 FFF7FEFF 		bl	CyExitCriticalSection
 193:.\Generated_Source\PSoC4/IDAC_1.c **** }
 287              		.loc 1 193 0
 288 0038 BD46     		mov	sp, r7
 289 003a 05B0     		add	sp, sp, #20
 290              		@ sp needed
 291 003c 90BD     		pop	{r4, r7, pc}
 292              	.L16:
 293 003e C046     		.align	2
 294              	.L15:
 295 0040 08000840 		.word	1074266120
 296              		.cfi_endproc
 297              	.LFE4:
 298              		.size	IDAC_1_SetValue, .-IDAC_1_SetValue
 299              		.text
 300              	.Letext0:
 301              		.file 2 ".\\Generated_Source\\PSoC4\\cytypes.h"